((lp0
(dp1
S'javac_switches'
p2
(dp3
S'd'
p4
S'/home/opprop/units-inference/benchmarks/paper-annotation/jblas/target/classes'
p5
sS'g'
p6
I01
sS'encoding'
p7
S'UTF-8'
p8
sS'sourcepath'
p9
S'/home/opprop/units-inference/benchmarks/paper-annotation/jblas/src/main/java:'
p10
sS'classpath'
p11
S'/home/opprop/units-inference/benchmarks/paper-annotation/jblas/target/classes:'
p12
sS'source'
p13
S'1.6'
p14
sS's'
p15
S'/home/opprop/units-inference/benchmarks/paper-annotation/jblas/target/generated-sources/annotations'
p16
sS'nowarn'
p17
I01
sS'target'
p18
S'1.6'
p19
ssS'java_files'
p20
(lp21
S'/home/opprop/units-inference/benchmarks/paper-annotation/jblas/src/main/java/org/jblas/Trigonometry.java'
p22
aS'/home/opprop/units-inference/benchmarks/paper-annotation/jblas/src/main/java/org/jblas/util/Logger.java'
p23
aS'/home/opprop/units-inference/benchmarks/paper-annotation/jblas/src/main/java/org/jblas/ranges/PointRange.java'
p24
aS'/home/opprop/units-inference/benchmarks/paper-annotation/jblas/src/main/java/org/jblas/Geometry.java'
p25
aS'/home/opprop/units-inference/benchmarks/paper-annotation/jblas/src/main/java/org/jblas/package-info.java'
p26
aS'/home/opprop/units-inference/benchmarks/paper-annotation/jblas/src/main/java/org/jblas/JavaBlas.java'
p27
aS'/home/opprop/units-inference/benchmarks/paper-annotation/jblas/src/main/java/org/jblas/util/Permutations.java'
p28
aS'/home/opprop/units-inference/benchmarks/paper-annotation/jblas/src/main/java/org/jblas/NativeBlasLibraryLoader.java'
p29
aS'/home/opprop/units-inference/benchmarks/paper-annotation/jblas/src/main/java/org/jblas/benchmark/JavaDoubleMultiplicationBenchmark.java'
p30
aS'/home/opprop/units-inference/benchmarks/paper-annotation/jblas/src/main/java/org/jblas/ComplexFloat.java'
p31
aS'/home/opprop/units-inference/benchmarks/paper-annotation/jblas/src/main/java/org/jblas/benchmark/package-info.java'
p32
aS'/home/opprop/units-inference/benchmarks/paper-annotation/jblas/src/main/java/org/jblas/FloatMatrix.java'
p33
aS'/home/opprop/units-inference/benchmarks/paper-annotation/jblas/src/main/java/org/jblas/Solve.java'
p34
aS'/home/opprop/units-inference/benchmarks/paper-annotation/jblas/src/main/java/org/jblas/ranges/Range.java'
p35
aS'/home/opprop/units-inference/benchmarks/paper-annotation/jblas/src/main/java/org/jblas/ranges/AllRange.java'
p36
aS'/home/opprop/units-inference/benchmarks/paper-annotation/jblas/src/main/java/org/jblas/exceptions/NoEigenResultException.java'
p37
aS'/home/opprop/units-inference/benchmarks/paper-annotation/jblas/src/main/java/org/jblas/ranges/package-info.java'
p38
aS'/home/opprop/units-inference/benchmarks/paper-annotation/jblas/src/main/java/org/jblas/util/ArchFlavor.java'
p39
aS'/home/opprop/units-inference/benchmarks/paper-annotation/jblas/src/main/java/org/jblas/NativeBlas.java'
p40
aS'/home/opprop/units-inference/benchmarks/paper-annotation/jblas/src/main/java/org/jblas/ComplexDouble.java'
p41
aS'/home/opprop/units-inference/benchmarks/paper-annotation/jblas/src/main/java/org/jblas/benchmark/Benchmark.java'
p42
aS'/home/opprop/units-inference/benchmarks/paper-annotation/jblas/src/main/java/org/jblas/exceptions/package-info.java'
p43
aS'/home/opprop/units-inference/benchmarks/paper-annotation/jblas/src/main/java/org/jblas/MatrixFunctions.java'
p44
aS'/home/opprop/units-inference/benchmarks/paper-annotation/jblas/src/main/java/org/jblas/exceptions/LapackConvergenceException.java'
p45
aS'/home/opprop/units-inference/benchmarks/paper-annotation/jblas/src/main/java/org/jblas/ranges/IndicesRange.java'
p46
aS'/home/opprop/units-inference/benchmarks/paper-annotation/jblas/src/main/java/org/jblas/exceptions/LapackArgumentException.java'
p47
aS'/home/opprop/units-inference/benchmarks/paper-annotation/jblas/src/main/java/org/jblas/benchmark/JavaFloatMultiplicationBenchmark.java'
p48
aS'/home/opprop/units-inference/benchmarks/paper-annotation/jblas/src/main/java/org/jblas/benchmark/Timer.java'
p49
aS'/home/opprop/units-inference/benchmarks/paper-annotation/jblas/src/main/java/org/jblas/exceptions/LapackPositivityException.java'
p50
aS'/home/opprop/units-inference/benchmarks/paper-annotation/jblas/src/main/java/org/jblas/ConvertsToFloatMatrix.java'
p51
aS'/home/opprop/units-inference/benchmarks/paper-annotation/jblas/src/main/java/org/jblas/FloatFunction.java'
p52
aS'/home/opprop/units-inference/benchmarks/paper-annotation/jblas/src/main/java/org/jblas/util/Functions.java'
p53
aS'/home/opprop/units-inference/benchmarks/paper-annotation/jblas/src/main/java/org/jblas/benchmark/BenchmarkResult.java'
p54
aS'/home/opprop/units-inference/benchmarks/paper-annotation/jblas/src/main/java/org/jblas/Decompose.java'
p55
aS'/home/opprop/units-inference/benchmarks/paper-annotation/jblas/src/main/java/org/jblas/DoubleMatrix.java'
p56
aS'/home/opprop/units-inference/benchmarks/paper-annotation/jblas/src/main/java/org/jblas/exceptions/SizeException.java'
p57
aS'/home/opprop/units-inference/benchmarks/paper-annotation/jblas/src/main/java/org/jblas/benchmark/Main.java'
p58
aS'/home/opprop/units-inference/benchmarks/paper-annotation/jblas/src/main/java/org/jblas/exceptions/UnsupportedArchitectureException.java'
p59
aS'/home/opprop/units-inference/benchmarks/paper-annotation/jblas/src/main/java/org/jblas/util/package-info.java'
p60
aS'/home/opprop/units-inference/benchmarks/paper-annotation/jblas/src/main/java/org/jblas/Eigen.java'
p61
aS'/home/opprop/units-inference/benchmarks/paper-annotation/jblas/src/main/java/org/jblas/ComplexDoubleMatrix.java'
p62
aS'/home/opprop/units-inference/benchmarks/paper-annotation/jblas/src/main/java/org/jblas/SimpleBlas.java'
p63
aS'/home/opprop/units-inference/benchmarks/paper-annotation/jblas/src/main/java/org/jblas/exceptions/LapackException.java'
p64
aS'/home/opprop/units-inference/benchmarks/paper-annotation/jblas/src/main/java/org/jblas/DoubleFunction.java'
p65
aS'/home/opprop/units-inference/benchmarks/paper-annotation/jblas/src/main/java/org/jblas/util/Random.java'
p66
aS'/home/opprop/units-inference/benchmarks/paper-annotation/jblas/src/main/java/org/jblas/util/LibraryLoader.java'
p67
aS'/home/opprop/units-inference/benchmarks/paper-annotation/jblas/src/main/java/org/jblas/ranges/RangeUtils.java'
p68
aS'/home/opprop/units-inference/benchmarks/paper-annotation/jblas/src/main/java/org/jblas/util/SanityChecks.java'
p69
aS'/home/opprop/units-inference/benchmarks/paper-annotation/jblas/src/main/java/org/jblas/benchmark/NativeDoubleMultiplicationBenchmark.java'
p70
aS'/home/opprop/units-inference/benchmarks/paper-annotation/jblas/src/main/java/org/jblas/Info.java'
p71
aS'/home/opprop/units-inference/benchmarks/paper-annotation/jblas/src/main/java/org/jblas/exceptions/LapackSingularityException.java'
p72
aS'/home/opprop/units-inference/benchmarks/paper-annotation/jblas/src/main/java/org/jblas/benchmark/NativeFloatMultiplicationBenchmark.java'
p73
aS'/home/opprop/units-inference/benchmarks/paper-annotation/jblas/src/main/java/org/jblas/ranges/IntervalRange.java'
p74
aS'/home/opprop/units-inference/benchmarks/paper-annotation/jblas/src/main/java/org/jblas/ConvertsToDoubleMatrix.java'
p75
aS'/home/opprop/units-inference/benchmarks/paper-annotation/jblas/src/main/java/org/jblas/ComplexFloatMatrix.java'
p76
aS'/home/opprop/units-inference/benchmarks/paper-annotation/jblas/src/main/java/org/jblas/Singular.java'
p77
asa(lp78
(dp79
S'built_jars'
p80
I0
sS'executable_jars'
p81
I0
sS'javac_invocations'
p82
I1
sS'build_time'
p83
F14.676701068878174
sS'source_files'
p84
I56
sS'class_files'
p85
I0
stp86
.